target datalayout = "e-m:e-p270:32:32-p271:32:32-p272:64:64-i64:64-i128:128-f80:128-n8:16:32:64-S128"
target triple = "x86_64-unknown-linux-gnu"

%struct.BdrvDirtyBitmap = type { ptr, ptr, i8, ptr, ptr, i64, i8, i32, i8, i8, i8, i8, %struct.anon }
%struct.anon = type { ptr, ptr }
%struct.BdrvDirtyBitmapIter = type { %struct.HBitmapIter, ptr }
%struct.HBitmapIter = type { ptr, i32, i64, [7 x i64] }

; Function Attrs: nounwind sspstrong uwtable
define dso_local ptr @bdrv_dirty_iter_new(ptr noundef %bitmap) #0 {
entry:
  %bitmap.addr = alloca ptr, align 8
  %iter = alloca ptr, align 8
  store ptr %bitmap, ptr %bitmap.addr, align 8
  %call = call noalias ptr @g_malloc_n(i64 noundef 1, i64 noundef 88) #14
  store ptr %call, ptr %iter, align 8
  %0 = load ptr, ptr %iter, align 8
  %hbi = getelementptr inbounds %struct.BdrvDirtyBitmapIter, ptr %0, i32 0, i32 0
  %1 = load ptr, ptr %bitmap.addr, align 8
  %bitmap1 = getelementptr inbounds %struct.BdrvDirtyBitmap, ptr %1, i32 0, i32 1
  %2 = load ptr, ptr %bitmap1, align 8
  call void @hbitmap_iter_init(ptr noundef %hbi, ptr noundef %2, i64 noundef 0)
  %3 = load ptr, ptr %bitmap.addr, align 8
  %4 = load ptr, ptr %iter, align 8
  %bitmap2 = getelementptr inbounds %struct.BdrvDirtyBitmapIter, ptr %4, i32 0, i32 1
  store ptr %3, ptr %bitmap2, align 8
  %5 = load ptr, ptr %bitmap.addr, align 8
  %active_iterators = getelementptr inbounds %struct.BdrvDirtyBitmap, ptr %5, i32 0, i32 7
  %6 = load i32, ptr %active_iterators, align 4
  %inc = add i32 %6, 1
  store i32 %inc, ptr %active_iterators, align 4
  %7 = load ptr, ptr %iter, align 8
  ret ptr %7
}