; Function Attrs: nounwind sspstrong uwtable
define dso_local noundef ptr @bdrv_dirty_iter_new(ptr noundef %bitmap) local_unnamed_addr #0 {
entry:
  %call = tail call noalias dereferenceable_or_null(88) ptr @g_malloc_n(i64 noundef 1, i64 noundef 88) #18
  %bitmap1 = getelementptr inbounds nuw i8, ptr %bitmap, i64 8
  %0 = load ptr, ptr %bitmap1, align 8
  tail call void @hbitmap_iter_init(ptr noundef %call, ptr noundef %0, i64 noundef 0) #14
  %bitmap2 = getelementptr inbounds nuw i8, ptr %call, i64 80
  store ptr %bitmap, ptr %bitmap2, align 8
  %active_iterators = getelementptr inbounds nuw i8, ptr %bitmap, i64 52
  %1 = load i32, ptr %active_iterators, align 4
  %inc = add i32 %1, 1
  store i32 %inc, ptr %active_iterators, align 4
  ret ptr %call
}